; Function Attrs: nounwind uwtable
define internal fastcc void @_pack_ping_slurmd_resp(ptr noundef readonly captures(none) %0, ptr noundef %1, i16 noundef zeroext %2) unnamed_addr #0 {
  %4 = icmp ugt i16 %2, 10239
  br i1 %4, label %5, label %9

5:                                                ; preds = %3
  %6 = load i32, ptr %0, align 8
  tail call void @pack32(i32 noundef %6, ptr noundef %1) #7
  %7 = getelementptr inbounds nuw i8, ptr %0, i64 8
  %8 = load i64, ptr %7, align 8
  tail call void @pack64(i64 noundef %8, ptr noundef %1) #7
  br label %9

9:                                                ; preds = %5, %3
  ret void
}